ccopy_reg
_reconstructor
p1
(cargparse
Namespace
p2
c__builtin__
object
p3
NtRp4
(dp5
S'layer'
p6
S'rcnn'
p7
sS'aspect'
p8
I-1
sS'dump'
p9
S''
sS'fix_emb'
p10
I1
sS'save_model'
p11
S''
sS'batch'
p12
I256
sS'max_len'
p13
I256
sS'use_all'
p14
I1
sS'learning'
p15
S'adam'
p16
sS'max_epochs'
p17
I100
sS'load_rationale'
p18
S''
sS'l2_reg'
p19
F9.9999999999999995e-07
sS'sparsity'
p20
F0.00029999999999999997
sS'decay_lr'
p21
I1
sS'load_model'
p22
S''
sS'beta2'
p23
F0.999
sS'beta1'
p24
F0.90000000000000002
sS'test'
p25
S''
sS'activation'
p26
S'tanh'
p27
sS'learning_rate'
p28
F0.00050000000000000001
sS'hidden_dimension'
p29
I200
sS'coherent'
p30
F2
sS'train'
p31
S'data/reviews.aspect1.train.txt.gz'
p32
sS'dropout'
p33
F0.10000000000000001
sS'eval_period'
p34
I-1
sS'dev'
p35
S''
sS'pooling'
p36
I0
sS'depth'
p37
I2
sS'hidden_dimension2'
p38
I30
sS'embedding'
p39
S'data/review+wiki.filtered.200.txt.gz'
p40
sS'order'
p41
I2
sb.